; ModuleID = 'source-C-CXX/2/1417.c'
source_filename = "source-C-CXX/2/1417.c"
target datalayout = "e-m:e-p270:32:32-p271:32:32-p272:64:64-i64:64-f80:128-n8:16:32:64-S128"
target triple = "x86_64-pc-linux-gnu"

@.str = private unnamed_addr constant [6 x i8] c"%d %d\00", align 1
@.str.1 = private unnamed_addr constant [3 x i8] c"%d\00", align 1
@.str.2 = private unnamed_addr constant [3 x i8] c"no\00", align 1
@.str.3 = private unnamed_addr constant [4 x i8] c"yes\00", align 1

; Function Attrs: nofree nounwind sspstrong uwtable
define dso_local i32 @main() local_unnamed_addr #0 {
  %1 = alloca [1000 x i32], align 16
  %2 = alloca i32, align 4
  %3 = alloca i32, align 4
  %4 = bitcast [1000 x i32]* %1 to i8*
  call void @llvm.lifetime.start.p0i8(i64 4000, i8* nonnull %4) #3
  %5 = bitcast i32* %2 to i8*
  call void @llvm.lifetime.start.p0i8(i64 4, i8* nonnull %5) #3
  %6 = bitcast i32* %3 to i8*
  call void @llvm.lifetime.start.p0i8(i64 4, i8* nonnull %6) #3
  %7 = call i32 (i8*, ...) @__isoc99_scanf(i8* getelementptr inbounds ([6 x i8], [6 x i8]* @.str, i64 0, i64 0), i32* nonnull %2, i32* nonnull %3)
  %8 = load i32, i32* %2, align 4, !tbaa !5
  %9 = icmp sgt i32 %8, 0
  br i1 %9, label %13, label %10

10:                                               ; preds = %13, %0
  %11 = phi i32 [ %8, %0 ], [ %18, %13 ]
  %12 = icmp sgt i32 %11, 1
  br i1 %12, label %21, label %62

13:                                               ; preds = %0, %13
  %14 = phi i64 [ %17, %13 ], [ 0, %0 ]
  %15 = getelementptr inbounds [1000 x i32], [1000 x i32]* %1, i64 0, i64 %14
  %16 = call i32 (i8*, ...) @__isoc99_scanf(i8* getelementptr inbounds ([3 x i8], [3 x i8]* @.str.1, i64 0, i64 0), i32* nonnull %15)
  %17 = add nuw nsw i64 %14, 1
  %18 = load i32, i32* %2, align 4, !tbaa !5
  %19 = sext i32 %18 to i64
  %20 = icmp slt i64 %17, %19
  br i1 %20, label %13, label %10, !llvm.loop !9

21:                                               ; preds = %10, %56
  %22 = phi i32 [ %54, %56 ], [ undef, %10 ]
  %23 = phi i64 [ %57, %56 ], [ 1, %10 ]
  %24 = phi i64 [ %32, %56 ], [ 0, %10 ]
  %25 = phi i32 [ %58, %56 ], [ %11, %10 ]
  %26 = add nsw i32 %25, -2
  %27 = zext i32 %26 to i64
  %28 = icmp eq i64 %24, %27
  br i1 %28, label %29, label %31

29:                                               ; preds = %21
  %30 = call i32 (i8*, ...) @printf(i8* nonnull dereferenceable(1) getelementptr inbounds ([3 x i8], [3 x i8]* @.str.2, i64 0, i64 0))
  br label %62

31:                                               ; preds = %21
  %32 = add nuw nsw i64 %24, 1
  %33 = load i32, i32* %3, align 4
  %34 = trunc i64 %32 to i32
  %35 = icmp sgt i32 %25, %34
  br i1 %35, label %36, label %52

36:                                               ; preds = %31
  %37 = getelementptr inbounds [1000 x i32], [1000 x i32]* %1, i64 0, i64 %24
  %38 = load i32, i32* %37, align 4, !tbaa !5
  br label %42

39:                                               ; preds = %42
  %40 = trunc i64 %48 to i32
  %41 = icmp eq i32 %25, %40
  br i1 %41, label %52, label %42, !llvm.loop !11

42:                                               ; preds = %36, %39
  %43 = phi i64 [ %23, %36 ], [ %48, %39 ]
  %44 = getelementptr inbounds [1000 x i32], [1000 x i32]* %1, i64 0, i64 %43
  %45 = load i32, i32* %44, align 4, !tbaa !5
  %46 = add nsw i32 %45, %38
  %47 = icmp eq i32 %46, %33
  %48 = add nuw nsw i64 %43, 1
  br i1 %47, label %49, label %39

49:                                               ; preds = %42
  %50 = call i32 (i8*, ...) @printf(i8* nonnull dereferenceable(1) getelementptr inbounds ([4 x i8], [4 x i8]* @.str.3, i64 0, i64 0))
  %51 = load i32, i32* %3, align 4, !tbaa !5
  br label %52

52:                                               ; preds = %39, %31, %49
  %53 = phi i32 [ %51, %49 ], [ %33, %31 ], [ %33, %39 ]
  %54 = phi i32 [ %33, %49 ], [ %22, %31 ], [ %46, %39 ]
  %55 = icmp eq i32 %54, %53
  br i1 %55, label %62, label %56, !llvm.loop !12

56:                                               ; preds = %52
  %57 = add nuw nsw i64 %23, 1
  %58 = load i32, i32* %2, align 4, !tbaa !5
  %59 = add nsw i32 %58, -1
  %60 = sext i32 %59 to i64
  %61 = icmp slt i64 %32, %60
  br i1 %61, label %21, label %62

62:                                               ; preds = %56, %52, %10, %29
  call void @llvm.lifetime.end.p0i8(i64 4, i8* nonnull %6) #3
  call void @llvm.lifetime.end.p0i8(i64 4, i8* nonnull %5) #3
  call void @llvm.lifetime.end.p0i8(i64 4000, i8* nonnull %4) #3
  ret i32 0
}

; Function Attrs: argmemonly mustprogress nofree nosync nounwind willreturn
declare void @llvm.lifetime.start.p0i8(i64 immarg, i8* nocapture) #1

; Function Attrs: nofree nounwind
declare noundef i32 @__isoc99_scanf(i8* nocapture noundef readonly, ...) local_unnamed_addr #2

; Function Attrs: nofree nounwind
declare noundef i32 @printf(i8* nocapture noundef readonly, ...) local_unnamed_addr #2

; Function Attrs: argmemonly mustprogress nofree nosync nounwind willreturn
declare void @llvm.lifetime.end.p0i8(i64 immarg, i8* nocapture) #1


!llvm.module.flags = !{!0, !1, !2, !3}
!llvm.ident = !{!4}

!0 = !{i32 1, !"wchar_size", i32 4}
!1 = !{i32 7, !"PIC Level", i32 2}
!2 = !{i32 7, !"PIE Level", i32 2}
!3 = !{i32 7, !"uwtable", i32 1}
!4 = !{!"clang version 13.0.0"}
!5 = !{!6, !6, i64 0}
!6 = !{!"int", !7, i64 0}
!7 = !{!"omnipotent char", !8, i64 0}
!8 = !{!"Simple C/C++ TBAA"}
!9 = distinct !{!9, !10}
!10 = !{!"llvm.loop.mustprogress"}
!11 = distinct !{!11, !10}
!12 = distinct !{!12, !10}
